target datalayout = "e-m:e-p270:32:32-p271:32:32-p272:64:64-i64:64-i128:128-f80:128-n8:16:32:64-S128"
target triple = "x86_64-pc-linux-gnu"

%struct.strbuf = type { i64, i64, ptr }
%struct.ls_tree_options = type { i8, i32, i32, %struct.pathspec, ptr, ptr }
%struct.pathspec = type { i32, i8, i32, i32, ptr }
%struct.pathspec_item = type { ptr, ptr, i32, i32, i32, i32, i32, i32, ptr, ptr }

; Function Attrs: nounwind uwtable
define internal i32 @show_recursive(ptr noundef %0, ptr noundef %1, i64 noundef %2, ptr noundef %3) #0 {
  %5 = alloca i32, align 4
  %6 = alloca ptr, align 8
  %7 = alloca ptr, align 8
  %8 = alloca i64, align 8
  %9 = alloca ptr, align 8
  %10 = alloca i32, align 4
  %11 = alloca i32, align 4
  %12 = alloca ptr, align 8
  %13 = alloca i64, align 8
  %14 = alloca i64, align 8
  store ptr %0, ptr %6, align 8, !tbaa !59
  store ptr %1, ptr %7, align 8, !tbaa !11
  store i64 %2, ptr %8, align 8, !tbaa !64
  store ptr %3, ptr %9, align 8, !tbaa !11
  call void @llvm.lifetime.start.p0(i64 4, ptr %10) #9
  %15 = load ptr, ptr %6, align 8, !tbaa !59
  %16 = getelementptr inbounds nuw %struct.ls_tree_options, ptr %15, i32 0, i32 2
  %17 = load i32, ptr %16, align 8, !tbaa !37
  %18 = and i32 %17, 1
  %19 = icmp ne i32 %18, 0
  br i1 %19, label %20, label %21

20:                                               ; preds = %4
  store i32 1, ptr %5, align 4
  store i32 1, ptr %11, align 4
  br label %93

21:                                               ; preds = %4
  %22 = load ptr, ptr %6, align 8, !tbaa !59
  %23 = getelementptr inbounds nuw %struct.ls_tree_options, ptr %22, i32 0, i32 3
  %24 = getelementptr inbounds nuw %struct.pathspec, ptr %23, i32 0, i32 0
  %25 = load i32, ptr %24, align 8, !tbaa !39
  %26 = icmp ne i32 %25, 0
  br i1 %26, label %28, label %27

27:                                               ; preds = %21
  store i32 0, ptr %5, align 4
  store i32 1, ptr %11, align 4
  br label %93

28:                                               ; preds = %21
  store i32 0, ptr %10, align 4, !tbaa !4
  br label %29

29:                                               ; preds = %89, %28
  %30 = load i32, ptr %10, align 4, !tbaa !4
  %31 = load ptr, ptr %6, align 8, !tbaa !59
  %32 = getelementptr inbounds nuw %struct.ls_tree_options, ptr %31, i32 0, i32 3
  %33 = getelementptr inbounds nuw %struct.pathspec, ptr %32, i32 0, i32 0
  %34 = load i32, ptr %33, align 8, !tbaa !39
  %35 = icmp slt i32 %30, %34
  br i1 %35, label %36, label %92

36:                                               ; preds = %29
  call void @llvm.lifetime.start.p0(i64 8, ptr %12) #9
  %37 = load ptr, ptr %6, align 8, !tbaa !59
  %38 = getelementptr inbounds nuw %struct.ls_tree_options, ptr %37, i32 0, i32 3
  %39 = getelementptr inbounds nuw %struct.pathspec, ptr %38, i32 0, i32 4
  %40 = load ptr, ptr %39, align 8, !tbaa !40
  %41 = load i32, ptr %10, align 4, !tbaa !4
  %42 = sext i32 %41 to i64
  %43 = getelementptr inbounds %struct.pathspec_item, ptr %40, i64 %42
  %44 = getelementptr inbounds nuw %struct.pathspec_item, ptr %43, i32 0, i32 0
  %45 = load ptr, ptr %44, align 8, !tbaa !71
  store ptr %45, ptr %12, align 8, !tbaa !11
  call void @llvm.lifetime.start.p0(i64 8, ptr %13) #9
  call void @llvm.lifetime.start.p0(i64 8, ptr %14) #9
  %46 = load ptr, ptr %7, align 8, !tbaa !11
  %47 = load ptr, ptr %12, align 8, !tbaa !11
  %48 = load i64, ptr %8, align 8, !tbaa !64
  %49 = call i32 @strncmp(ptr noundef %46, ptr noundef %47, i64 noundef %48) #11
  %50 = icmp ne i32 %49, 0
  br i1 %50, label %51, label %52

51:                                               ; preds = %36
  store i32 4, ptr %11, align 4
  br label %87

52:                                               ; preds = %36
  %53 = load ptr, ptr %9, align 8, !tbaa !11
  %54 = call i64 @strlen(ptr noundef %53) #11
  store i64 %54, ptr %13, align 8, !tbaa !64
  %55 = load i64, ptr %8, align 8, !tbaa !64
  %56 = load ptr, ptr %12, align 8, !tbaa !11
  %57 = getelementptr inbounds nuw i8, ptr %56, i64 %55
  store ptr %57, ptr %12, align 8, !tbaa !11
  %58 = load ptr, ptr %12, align 8, !tbaa !11
  %59 = call i64 @strlen(ptr noundef %58) #11
  store i64 %59, ptr %14, align 8, !tbaa !64
  %60 = load i64, ptr %14, align 8, !tbaa !64
  %61 = load i64, ptr %13, align 8, !tbaa !64
  %62 = icmp ule i64 %60, %61
  br i1 %62, label %63, label %64

63:                                               ; preds = %52
  store i32 4, ptr %11, align 4
  br label %87

64:                                               ; preds = %52
  %65 = load ptr, ptr %12, align 8, !tbaa !11
  %66 = load i64, ptr %13, align 8, !tbaa !64
  %67 = getelementptr inbounds nuw i8, ptr %65, i64 %66
  %68 = load i8, ptr %67, align 1, !tbaa !15
  %69 = sext i8 %68 to i32
  %70 = icmp ne i32 %69, 0
  br i1 %70, label %71, label %79

71:                                               ; preds = %64
  %72 = load ptr, ptr %12, align 8, !tbaa !11
  %73 = load i64, ptr %13, align 8, !tbaa !64
  %74 = getelementptr inbounds nuw i8, ptr %72, i64 %73
  %75 = load i8, ptr %74, align 1, !tbaa !15
  %76 = sext i8 %75 to i32
  %77 = icmp ne i32 %76, 47
  br i1 %77, label %78, label %79

78:                                               ; preds = %71
  store i32 4, ptr %11, align 4
  br label %87

79:                                               ; preds = %71, %64
  %80 = load ptr, ptr %9, align 8, !tbaa !11
  %81 = load ptr, ptr %12, align 8, !tbaa !11
  %82 = load i64, ptr %13, align 8, !tbaa !64
  %83 = call i32 @memcmp(ptr noundef %80, ptr noundef %81, i64 noundef %82) #11
  %84 = icmp ne i32 %83, 0
  br i1 %84, label %85, label %86

85:                                               ; preds = %79
  store i32 4, ptr %11, align 4
  br label %87

86:                                               ; preds = %79
  store i32 1, ptr %5, align 4
  store i32 1, ptr %11, align 4
  br label %87

87:                                               ; preds = %86, %85, %78, %63, %51
  call void @llvm.lifetime.end.p0(i64 8, ptr %14) #9
  call void @llvm.lifetime.end.p0(i64 8, ptr %13) #9
  call void @llvm.lifetime.end.p0(i64 8, ptr %12) #9
  %88 = load i32, ptr %11, align 4
  switch i32 %88, label %93 [
    i32 4, label %89
  ]

89:                                               ; preds = %87
  %90 = load i32, ptr %10, align 4, !tbaa !4
  %91 = add nsw i32 %90, 1
  store i32 %91, ptr %10, align 4, !tbaa !4
  br label %29, !llvm.loop !72

92:                                               ; preds = %29
  store i32 0, ptr %5, align 4
  store i32 1, ptr %11, align 4
  br label %93

93:                                               ; preds = %92, %87, %27, %20
  call void @llvm.lifetime.end.p0(i64 4, ptr %10) #9
  %94 = load i32, ptr %5, align 4
  ret i32 %94
}

; Function Attrs: nounwind uwtable
define internal i32 @show_tree_common(ptr noundef %0, ptr noundef %1, ptr noundef %2, ptr noundef %3, i32 noundef %4) #0 {
  %6 = alloca ptr, align 8
  %7 = alloca ptr, align 8
  %8 = alloca ptr, align 8
  %9 = alloca ptr, align 8
  %10 = alloca i32, align 4
  %11 = alloca i32, align 4
  store ptr %0, ptr %6, align 8, !tbaa !59
  store ptr %1, ptr %7, align 8, !tbaa !69
  store ptr %2, ptr %8, align 8, !tbaa !57
  store ptr %3, ptr %9, align 8, !tbaa !11
  store i32 %4, ptr %10, align 4, !tbaa !4
  call void @llvm.lifetime.start.p0(i64 4, ptr %11) #9
  store i32 -1, ptr %11, align 4, !tbaa !4
  %12 = load ptr, ptr %7, align 8, !tbaa !69
  store i32 0, ptr %12, align 4, !tbaa !4
  %13 = load i32, ptr %10, align 4, !tbaa !4
  %14 = icmp eq i32 %13, 3
  br i1 %14, label %15, label %23

15:                                               ; preds = %5
  %16 = load ptr, ptr %6, align 8, !tbaa !59
  %17 = getelementptr inbounds nuw %struct.ls_tree_options, ptr %16, i32 0, i32 2
  %18 = load i32, ptr %17, align 8, !tbaa !37
  %19 = and i32 %18, 2
  %20 = icmp ne i32 %19, 0
  br i1 %20, label %21, label %22

21:                                               ; preds = %15
  store i32 0, ptr %11, align 4, !tbaa !4
  br label %22

22:                                               ; preds = %21, %15
  br label %49

23:                                               ; preds = %5
  %24 = load i32, ptr %10, align 4, !tbaa !4
  %25 = icmp eq i32 %24, 2
  br i1 %25, label %26, label %48

26:                                               ; preds = %23
  %27 = load ptr, ptr %6, align 8, !tbaa !59
  %28 = load ptr, ptr %8, align 8, !tbaa !57
  %29 = getelementptr inbounds nuw %struct.strbuf, ptr %28, i32 0, i32 2
  %30 = load ptr, ptr %29, align 8, !tbaa !61
  %31 = load ptr, ptr %8, align 8, !tbaa !57
  %32 = getelementptr inbounds nuw %struct.strbuf, ptr %31, i32 0, i32 1
  %33 = load i64, ptr %32, align 8, !tbaa !63
  %34 = load ptr, ptr %9, align 8, !tbaa !11
  %35 = call i32 @show_recursive(ptr noundef %27, ptr noundef %30, i64 noundef %33, ptr noundef %34)
  %36 = icmp ne i32 %35, 0
  br i1 %36, label %37, label %48

37:                                               ; preds = %26
  %38 = load ptr, ptr %7, align 8, !tbaa !69
  store i32 1, ptr %38, align 4, !tbaa !4
  %39 = load ptr, ptr %6, align 8, !tbaa !59
  %40 = getelementptr inbounds nuw %struct.ls_tree_options, ptr %39, i32 0, i32 2
  %41 = load i32, ptr %40, align 8, !tbaa !37
  %42 = and i32 %41, 4
  %43 = icmp ne i32 %42, 0
  br i1 %43, label %47, label %44

44:                                               ; preds = %37
  %45 = load ptr, ptr %7, align 8, !tbaa !69
  %46 = load i32, ptr %45, align 4, !tbaa !4
  store i32 %46, ptr %11, align 4, !tbaa !4
  br label %47

47:                                               ; preds = %44, %37
  br label %48

48:                                               ; preds = %47, %26, %23
  br label %49

49:                                               ; preds = %48, %22
  %50 = load i32, ptr %11, align 4, !tbaa !4
  call void @llvm.lifetime.end.p0(i64 4, ptr %11) #9
  ret i32 %50
}