; Function Attrs: nofree nounwind memory(read, argmem: readwrite, inaccessiblemem: none) uwtable
define internal fastcc range(i32 -1, 2) i32 @show_tree_common(ptr noundef readonly captures(none) %0, ptr noundef nonnull writeonly captures(none) initializes((0, 4)) %1, ptr noundef readonly captures(none) %2, ptr noundef readonly captures(none) %3, i32 noundef range(i32 1, 4) %4) unnamed_addr #7 {
  store i32 0, ptr %1, align 4, !tbaa !4
  switch i32 %4, label %show_recursive.exit.thread [
    i32 3, label %6
    i32 2, label %11
  ]

6:                                                ; preds = %5
  %7 = getelementptr inbounds nuw i8, ptr %0, i64 8
  %8 = load i32, ptr %7, align 8, !tbaa !28
  %9 = lshr i32 %8, 1
  %10 = and i32 %9, 1
  %sext = add nsw i32 %10, -1
  br label %show_recursive.exit.thread

11:                                               ; preds = %5
  %12 = getelementptr inbounds nuw i8, ptr %2, i64 16
  %13 = load ptr, ptr %12, align 8, !tbaa !45
  %14 = getelementptr inbounds nuw i8, ptr %2, i64 8
  %15 = load i64, ptr %14, align 8, !tbaa !47
  %16 = getelementptr inbounds nuw i8, ptr %0, i64 8
  %17 = load i32, ptr %16, align 8, !tbaa !28
  %18 = and i32 %17, 1
  %.not.i = icmp eq i32 %18, 0
  br i1 %.not.i, label %19, label %show_recursive.exit

19:                                               ; preds = %11
  %20 = getelementptr inbounds nuw i8, ptr %0, i64 16
  %21 = load i32, ptr %20, align 8, !tbaa !31
  %22 = icmp sgt i32 %21, 0
  br i1 %22, label %.lr.ph.i, label %show_recursive.exit.thread

.lr.ph.i:                                         ; preds = %19
  %23 = getelementptr inbounds nuw i8, ptr %0, i64 32
  %24 = load ptr, ptr %23, align 8, !tbaa !32
  %wide.trip.count.i = zext nneg i32 %21 to i64
  br label %25

25:                                               ; preds = %.critedge.i, %.lr.ph.i
  %indvars.iv.i = phi i64 [ 0, %.lr.ph.i ], [ %indvars.iv.next.i, %.critedge.i ]
  %26 = getelementptr inbounds nuw %struct.pathspec_item, ptr %24, i64 %indvars.iv.i
  %27 = load ptr, ptr %26, align 8, !tbaa !48
  %28 = tail call i32 @strncmp(ptr noundef readonly %13, ptr noundef %27, i64 noundef %15) #15
  %.not29.i = icmp eq i32 %28, 0
  br i1 %.not29.i, label %29, label %.critedge.i

29:                                               ; preds = %25
  %30 = tail call i64 @strlen(ptr noundef nonnull readonly dereferenceable(1) %3) #15
  %31 = getelementptr inbounds nuw i8, ptr %27, i64 %15
  %32 = tail call i64 @strlen(ptr noundef nonnull dereferenceable(1) %31) #15
  %.not30.i = icmp ugt i64 %32, %30
  br i1 %.not30.i, label %33, label %.critedge.i

33:                                               ; preds = %29
  %34 = getelementptr inbounds nuw i8, ptr %31, i64 %30
  %35 = load i8, ptr %34, align 1, !tbaa !8
  switch i8 %35, label %.critedge.i [
    i8 0, label %36
    i8 47, label %36
  ]

36:                                               ; preds = %33, %33
  %bcmp.i = tail call i32 @bcmp(ptr nonnull readonly %3, ptr nonnull %31, i64 %30)
  %.not33.not.i = icmp eq i32 %bcmp.i, 0
  br i1 %.not33.not.i, label %show_recursive.exit, label %.critedge.i

.critedge.i:                                      ; preds = %36, %33, %29, %25
  %indvars.iv.next.i = add nuw nsw i64 %indvars.iv.i, 1
  %exitcond.not.i = icmp eq i64 %indvars.iv.next.i, %wide.trip.count.i
  br i1 %exitcond.not.i, label %show_recursive.exit.thread, label %25, !llvm.loop !49

show_recursive.exit:                              ; preds = %36, %11
  store i32 1, ptr %1, align 4, !tbaa !4
  %37 = load i32, ptr %16, align 8, !tbaa !28
  %38 = and i32 %37, 4
  %.not12 = icmp eq i32 %38, 0
  %spec.select14 = select i1 %.not12, i32 1, i32 -1
  br label %show_recursive.exit.thread

show_recursive.exit.thread:                       ; preds = %.critedge.i, %19, %show_recursive.exit, %6, %5
  %.0 = phi i32 [ %sext, %6 ], [ -1, %5 ], [ %spec.select14, %show_recursive.exit ], [ -1, %19 ], [ -1, %.critedge.i ]
  ret i32 %.0
}